target datalayout = "e-m:e-p270:32:32-p271:32:32-p272:64:64-i64:64-i128:128-f80:128-n8:16:32:64-S128"
target triple = "x86_64-pc-linux-gnu"

%struct.PROV_DH_CTX = type { ptr, ptr, ptr, i8, i32, ptr, ptr, i64, i64, ptr }

@.str.1 = private unnamed_addr constant [9 x i8] c"kdf-type\00", align 1
@.str.2 = private unnamed_addr constant [13 x i8] c"X942KDF-ASN1\00", align 1
@.str.3 = private unnamed_addr constant [11 x i8] c"kdf-digest\00", align 1
@.str.5 = private unnamed_addr constant [11 x i8] c"kdf-outlen\00", align 1
@.str.6 = private unnamed_addr constant [8 x i8] c"kdf-ukm\00", align 1
@.str.8 = private unnamed_addr constant [7 x i8] c"cekalg\00", align 1
@.str.10 = private unnamed_addr constant [1 x i8] zeroinitializer, align 1

; Function Attrs: nounwind uwtable
define internal i32 @dh_get_ctx_params(ptr noundef %0, ptr noundef %1) #0 {
  %3 = alloca i32, align 4
  %4 = alloca ptr, align 8
  %5 = alloca ptr, align 8
  %6 = alloca ptr, align 8
  %7 = alloca ptr, align 8
  %8 = alloca i32, align 4
  %9 = alloca ptr, align 8
  store ptr %0, ptr %4, align 8, !tbaa !3
  store ptr %1, ptr %5, align 8, !tbaa !16
  call void @llvm.lifetime.start.p0(i64 8, ptr %6) #7
  %10 = load ptr, ptr %4, align 8, !tbaa !3
  store ptr %10, ptr %6, align 8, !tbaa !3
  call void @llvm.lifetime.start.p0(i64 8, ptr %7) #7
  %11 = load ptr, ptr %6, align 8, !tbaa !3
  %12 = icmp eq ptr %11, null
  br i1 %12, label %13, label %14

13:                                               ; preds = %2
  store i32 0, ptr %3, align 4
  store i32 1, ptr %8, align 4
  br label %109

14:                                               ; preds = %2
  %15 = load ptr, ptr %5, align 8, !tbaa !16
  %16 = call ptr @OSSL_PARAM_locate(ptr noundef %15, ptr noundef @.str.1)
  store ptr %16, ptr %7, align 8, !tbaa !16
  %17 = load ptr, ptr %7, align 8, !tbaa !16
  %18 = icmp ne ptr %17, null
  br i1 %18, label %19, label %36

19:                                               ; preds = %14
  call void @llvm.lifetime.start.p0(i64 8, ptr %9) #7
  store ptr null, ptr %9, align 8, !tbaa !19
  %20 = load ptr, ptr %6, align 8, !tbaa !3
  %21 = getelementptr inbounds nuw %struct.PROV_DH_CTX, ptr %20, i32 0, i32 4
  %22 = load i32, ptr %21, align 4, !tbaa !15
  switch i32 %22, label %25 [
    i32 0, label %23
    i32 1, label %24
  ]

23:                                               ; preds = %19
  store ptr @.str.10, ptr %9, align 8, !tbaa !19
  br label %26

24:                                               ; preds = %19
  store ptr @.str.2, ptr %9, align 8, !tbaa !19
  br label %26

25:                                               ; preds = %19
  store i32 0, ptr %3, align 4
  store i32 1, ptr %8, align 4
  br label %33

26:                                               ; preds = %24, %23
  %27 = load ptr, ptr %7, align 8, !tbaa !16
  %28 = load ptr, ptr %9, align 8, !tbaa !19
  %29 = call i32 @OSSL_PARAM_set_utf8_string(ptr noundef %27, ptr noundef %28)
  %30 = icmp ne i32 %29, 0
  br i1 %30, label %32, label %31

31:                                               ; preds = %26
  store i32 0, ptr %3, align 4
  store i32 1, ptr %8, align 4
  br label %33

32:                                               ; preds = %26
  store i32 0, ptr %8, align 4
  br label %33

33:                                               ; preds = %32, %31, %25
  call void @llvm.lifetime.end.p0(i64 8, ptr %9) #7
  %34 = load i32, ptr %8, align 4
  switch i32 %34, label %109 [
    i32 0, label %35
  ]

35:                                               ; preds = %33
  br label %36

36:                                               ; preds = %35, %14
  %37 = load ptr, ptr %5, align 8, !tbaa !16
  %38 = call ptr @OSSL_PARAM_locate(ptr noundef %37, ptr noundef @.str.3)
  store ptr %38, ptr %7, align 8, !tbaa !16
  %39 = load ptr, ptr %7, align 8, !tbaa !16
  %40 = icmp ne ptr %39, null
  br i1 %40, label %41, label %58

41:                                               ; preds = %36
  %42 = load ptr, ptr %7, align 8, !tbaa !16
  %43 = load ptr, ptr %6, align 8, !tbaa !3
  %44 = getelementptr inbounds nuw %struct.PROV_DH_CTX, ptr %43, i32 0, i32 5
  %45 = load ptr, ptr %44, align 8, !tbaa !25
  %46 = icmp eq ptr %45, null
  br i1 %46, label %47, label %48

47:                                               ; preds = %41
  br label %53

48:                                               ; preds = %41
  %49 = load ptr, ptr %6, align 8, !tbaa !3
  %50 = getelementptr inbounds nuw %struct.PROV_DH_CTX, ptr %49, i32 0, i32 5
  %51 = load ptr, ptr %50, align 8, !tbaa !25
  %52 = call ptr @EVP_MD_get0_name(ptr noundef %51)
  br label %53

53:                                               ; preds = %48, %47
  %54 = phi ptr [ @.str.10, %47 ], [ %52, %48 ]
  %55 = call i32 @OSSL_PARAM_set_utf8_string(ptr noundef %42, ptr noundef %54)
  %56 = icmp ne i32 %55, 0
  br i1 %56, label %58, label %57

57:                                               ; preds = %53
  store i32 0, ptr %3, align 4
  store i32 1, ptr %8, align 4
  br label %109

58:                                               ; preds = %53, %36
  %59 = load ptr, ptr %5, align 8, !tbaa !16
  %60 = call ptr @OSSL_PARAM_locate(ptr noundef %59, ptr noundef @.str.5)
  store ptr %60, ptr %7, align 8, !tbaa !16
  %61 = load ptr, ptr %7, align 8, !tbaa !16
  %62 = icmp ne ptr %61, null
  br i1 %62, label %63, label %71

63:                                               ; preds = %58
  %64 = load ptr, ptr %7, align 8, !tbaa !16
  %65 = load ptr, ptr %6, align 8, !tbaa !3
  %66 = getelementptr inbounds nuw %struct.PROV_DH_CTX, ptr %65, i32 0, i32 8
  %67 = load i64, ptr %66, align 8, !tbaa !34
  %68 = call i32 @OSSL_PARAM_set_size_t(ptr noundef %64, i64 noundef %67)
  %69 = icmp ne i32 %68, 0
  br i1 %69, label %71, label %70

70:                                               ; preds = %63
  store i32 0, ptr %3, align 4
  store i32 1, ptr %8, align 4
  br label %109

71:                                               ; preds = %63, %58
  %72 = load ptr, ptr %5, align 8, !tbaa !16
  %73 = call ptr @OSSL_PARAM_locate(ptr noundef %72, ptr noundef @.str.6)
  store ptr %73, ptr %7, align 8, !tbaa !16
  %74 = load ptr, ptr %7, align 8, !tbaa !16
  %75 = icmp ne ptr %74, null
  br i1 %75, label %76, label %87

76:                                               ; preds = %71
  %77 = load ptr, ptr %7, align 8, !tbaa !16
  %78 = load ptr, ptr %6, align 8, !tbaa !3
  %79 = getelementptr inbounds nuw %struct.PROV_DH_CTX, ptr %78, i32 0, i32 6
  %80 = load ptr, ptr %79, align 8, !tbaa !26
  %81 = load ptr, ptr %6, align 8, !tbaa !3
  %82 = getelementptr inbounds nuw %struct.PROV_DH_CTX, ptr %81, i32 0, i32 7
  %83 = load i64, ptr %82, align 8, !tbaa !27
  %84 = call i32 @OSSL_PARAM_set_octet_ptr(ptr noundef %77, ptr noundef %80, i64 noundef %83)
  %85 = icmp ne i32 %84, 0
  br i1 %85, label %87, label %86

86:                                               ; preds = %76
  store i32 0, ptr %3, align 4
  store i32 1, ptr %8, align 4
  br label %109

87:                                               ; preds = %76, %71
  %88 = load ptr, ptr %5, align 8, !tbaa !16
  %89 = call ptr @OSSL_PARAM_locate(ptr noundef %88, ptr noundef @.str.8)
  store ptr %89, ptr %7, align 8, !tbaa !16
  %90 = load ptr, ptr %7, align 8, !tbaa !16
  %91 = icmp ne ptr %90, null
  br i1 %91, label %92, label %108

92:                                               ; preds = %87
  %93 = load ptr, ptr %7, align 8, !tbaa !16
  %94 = load ptr, ptr %6, align 8, !tbaa !3
  %95 = getelementptr inbounds nuw %struct.PROV_DH_CTX, ptr %94, i32 0, i32 9
  %96 = load ptr, ptr %95, align 8, !tbaa !24
  %97 = icmp eq ptr %96, null
  br i1 %97, label %98, label %99

98:                                               ; preds = %92
  br label %103

99:                                               ; preds = %92
  %100 = load ptr, ptr %6, align 8, !tbaa !3
  %101 = getelementptr inbounds nuw %struct.PROV_DH_CTX, ptr %100, i32 0, i32 9
  %102 = load ptr, ptr %101, align 8, !tbaa !24
  br label %103

103:                                              ; preds = %99, %98
  %104 = phi ptr [ @.str.10, %98 ], [ %102, %99 ]
  %105 = call i32 @OSSL_PARAM_set_utf8_string(ptr noundef %93, ptr noundef %104)
  %106 = icmp ne i32 %105, 0
  br i1 %106, label %108, label %107

107:                                              ; preds = %103
  store i32 0, ptr %3, align 4
  store i32 1, ptr %8, align 4
  br label %109

108:                                              ; preds = %103, %87
  store i32 1, ptr %3, align 4
  store i32 1, ptr %8, align 4
  br label %109

109:                                              ; preds = %108, %107, %86, %70, %57, %33, %13
  call void @llvm.lifetime.end.p0(i64 8, ptr %7) #7
  call void @llvm.lifetime.end.p0(i64 8, ptr %6) #7
  %110 = load i32, ptr %3, align 4
  ret i32 %110
}