; Function Attrs: nounwind uwtable
define internal range(i32 0, 2) i32 @dh_get_ctx_params(ptr noundef readonly captures(address_is_null) %0, ptr noundef %1) #0 {
  %3 = icmp eq ptr %0, null
  br i1 %3, label %.critedge, label %4

4:                                                ; preds = %2
  %5 = tail call ptr @OSSL_PARAM_locate(ptr noundef %1, ptr noundef nonnull @.str.1) #7
  %.not = icmp eq ptr %5, null
  br i1 %.not, label %12, label %6

6:                                                ; preds = %4
  %7 = getelementptr inbounds nuw i8, ptr %0, i64 28
  %8 = load i32, ptr %7, align 4, !tbaa !14
  switch i32 %8, label %.critedge [
    i32 0, label %10
    i32 1, label %9
  ]

9:                                                ; preds = %6
  br label %10

10:                                               ; preds = %6, %9
  %.0 = phi ptr [ @.str.2, %9 ], [ @.str.10, %6 ]
  %11 = tail call i32 @OSSL_PARAM_set_utf8_string(ptr noundef nonnull %5, ptr noundef nonnull %.0) #7
  %.not37.not = icmp eq i32 %11, 0
  br i1 %.not37.not, label %.critedge, label %12

12:                                               ; preds = %10, %4
  %13 = tail call ptr @OSSL_PARAM_locate(ptr noundef %1, ptr noundef nonnull @.str.3) #7
  %.not38 = icmp eq ptr %13, null
  br i1 %.not38, label %23, label %14

14:                                               ; preds = %12
  %15 = getelementptr inbounds nuw i8, ptr %0, i64 32
  %16 = load ptr, ptr %15, align 8, !tbaa !22
  %17 = icmp eq ptr %16, null
  br i1 %17, label %20, label %18

18:                                               ; preds = %14
  %19 = tail call ptr @EVP_MD_get0_name(ptr noundef nonnull %16) #7
  br label %20

20:                                               ; preds = %14, %18
  %21 = phi ptr [ %19, %18 ], [ @.str.10, %14 ]
  %22 = tail call i32 @OSSL_PARAM_set_utf8_string(ptr noundef nonnull %13, ptr noundef %21) #7
  %.not39 = icmp eq i32 %22, 0
  br i1 %.not39, label %.critedge, label %23

23:                                               ; preds = %20, %12
  %24 = tail call ptr @OSSL_PARAM_locate(ptr noundef %1, ptr noundef nonnull @.str.5) #7
  %.not40 = icmp eq ptr %24, null
  br i1 %.not40, label %29, label %25

25:                                               ; preds = %23
  %26 = getelementptr inbounds nuw i8, ptr %0, i64 56
  %27 = load i64, ptr %26, align 8, !tbaa !16
  %28 = tail call i32 @OSSL_PARAM_set_size_t(ptr noundef nonnull %24, i64 noundef %27) #7
  %.not41 = icmp eq i32 %28, 0
  br i1 %.not41, label %.critedge, label %29

29:                                               ; preds = %25, %23
  %30 = tail call ptr @OSSL_PARAM_locate(ptr noundef %1, ptr noundef nonnull @.str.6) #7
  %.not42 = icmp eq ptr %30, null
  br i1 %.not42, label %37, label %31

31:                                               ; preds = %29
  %32 = getelementptr inbounds nuw i8, ptr %0, i64 40
  %33 = load ptr, ptr %32, align 8, !tbaa !20
  %34 = getelementptr inbounds nuw i8, ptr %0, i64 48
  %35 = load i64, ptr %34, align 8, !tbaa !21
  %36 = tail call i32 @OSSL_PARAM_set_octet_ptr(ptr noundef nonnull %30, ptr noundef %33, i64 noundef %35) #7
  %.not43 = icmp eq i32 %36, 0
  br i1 %.not43, label %.critedge, label %37

37:                                               ; preds = %31, %29
  %38 = tail call ptr @OSSL_PARAM_locate(ptr noundef %1, ptr noundef nonnull @.str.8) #7
  %.not44 = icmp eq ptr %38, null
  br i1 %.not44, label %44, label %39

39:                                               ; preds = %37
  %40 = getelementptr inbounds nuw i8, ptr %0, i64 64
  %41 = load ptr, ptr %40, align 8, !tbaa !19
  %42 = icmp eq ptr %41, null
  %spec.select = select i1 %42, ptr @.str.10, ptr %41
  %43 = tail call i32 @OSSL_PARAM_set_utf8_string(ptr noundef nonnull %38, ptr noundef nonnull %spec.select) #7
  %.not45 = icmp eq i32 %43, 0
  br i1 %.not45, label %.critedge, label %44

44:                                               ; preds = %39, %37
  br label %.critedge

.critedge:                                        ; preds = %6, %39, %31, %25, %20, %2, %10, %44
  %.028 = phi i32 [ 1, %44 ], [ 0, %10 ], [ 0, %2 ], [ 0, %20 ], [ 0, %25 ], [ 0, %31 ], [ 0, %39 ], [ 0, %6 ]
  ret i32 %.028
}